; Function Attrs: nounwind uwtable
define internal void @_WriteExtraToc(ptr noundef %0, ptr noundef readonly captures(none) %1) #0 {
  %3 = getelementptr inbounds nuw i8, ptr %1, i64 152
  %4 = load ptr, ptr %3, align 8
  %5 = getelementptr inbounds nuw i8, ptr %4, i64 8
  %6 = load i64, ptr %5, align 8
  %7 = load i32, ptr %4, align 8
  %8 = tail call i64 @WriteOffset(ptr noundef %0, i64 noundef %6, i32 noundef %7) #7
  ret void
}